; Function Attrs: nounwind uwtable
define internal fastcc void @ir_match_fuse_load_commutative_int(ptr noundef %0, ptr nocapture noundef %1, i32 noundef %2) unnamed_addr #1 {
  %4 = getelementptr inbounds i8, ptr %1, i64 8
  %5 = load i32, ptr %4, align 8
  %6 = icmp slt i32 %5, 0
  br i1 %6, label %7, label %ir_may_fuse_imm.exit.thread11

7:                                                ; preds = %3
  %8 = load ptr, ptr %0, align 8
  %9 = sext i32 %5 to i64
  %10 = getelementptr inbounds %struct._ir_insn, ptr %8, i64 %9
  %11 = getelementptr inbounds i8, ptr %10, i64 1
  %12 = load i8, ptr %11, align 1
  %13 = icmp eq i8 %12, 6
  br i1 %13, label %14, label %36

14:                                               ; preds = %7
  %15 = load i8, ptr %10, align 8
  %.off.i = add i8 %15, -66
  %switch.i = icmp ult i8 %.off.i, 3
  %16 = getelementptr i8, ptr %10, i64 8
  br i1 %switch.i, label %17, label %33

17:                                               ; preds = %14
  %.val.i = load i32, ptr %16, align 8
  %18 = tail call ptr @ir_get_str(ptr noundef nonnull %0, i32 noundef %.val.i) #22
  %19 = getelementptr inbounds i8, ptr %0, i64 328
  %20 = load ptr, ptr %19, align 8
  %.not.i.i = icmp eq ptr %20, null
  br i1 %.not.i.i, label %26, label %21

21:                                               ; preds = %17
  %22 = getelementptr inbounds i8, ptr %20, i64 96
  %23 = load ptr, ptr %22, align 8
  %.not10.i.i = icmp eq ptr %23, null
  br i1 %.not10.i.i, label %26, label %24

24:                                               ; preds = %21
  %25 = tail call ptr %23(ptr noundef nonnull %20, ptr noundef %18, i1 noundef zeroext false) #22
  br label %ir_sym_addr.exit.i

26:                                               ; preds = %21, %17
  %27 = tail call ptr @dlsym(ptr noundef null, ptr noundef %18) #22
  br label %ir_sym_addr.exit.i

ir_sym_addr.exit.i:                               ; preds = %26, %24
  %28 = phi ptr [ %25, %24 ], [ %27, %26 ]
  %.not.i = icmp eq ptr %28, null
  br i1 %.not.i, label %ir_may_fuse_imm.exit.thread11, label %29

29:                                               ; preds = %ir_sym_addr.exit.i
  %30 = icmp slt ptr %28, inttoptr (i64 2147483648 to ptr)
  %31 = icmp sgt ptr %28, inttoptr (i64 -2147483649 to ptr)
  %32 = and i1 %30, %31
  br i1 %32, label %ir_may_fuse_imm.exit.thread, label %ir_may_fuse_imm.exit.thread11

33:                                               ; preds = %14
  %34 = load i64, ptr %16, align 8
  %35 = add i64 %34, 2147483648
  %spec.select.i = icmp ult i64 %35, 4294967296
  br i1 %spec.select.i, label %ir_may_fuse_imm.exit.thread, label %ir_may_fuse_imm.exit.thread11

36:                                               ; preds = %7
  %37 = zext i8 %12 to i64
  %38 = getelementptr inbounds [14 x i8], ptr @ir_type_size, i64 0, i64 %37
  %39 = load i8, ptr %38, align 1
  %40 = icmp ult i8 %39, 5
  br i1 %40, label %ir_may_fuse_imm.exit.thread, label %ir_may_fuse_imm.exit

ir_may_fuse_imm.exit:                             ; preds = %36
  %41 = getelementptr inbounds i8, ptr %10, i64 8
  %42 = load i64, ptr %41, align 8
  %43 = add i64 %42, 2147483648
  %spec.select19.i = icmp ult i64 %43, 4294967296
  br i1 %spec.select19.i, label %ir_may_fuse_imm.exit.thread, label %ir_may_fuse_imm.exit.thread11

ir_may_fuse_imm.exit.thread11:                    ; preds = %ir_sym_addr.exit.i, %33, %29, %ir_may_fuse_imm.exit, %3
  %44 = load i32, ptr %4, align 8
  %45 = tail call fastcc zeroext i1 @ir_match_try_fuse_load(ptr noundef %0, i32 noundef %44, i32 noundef %2)
  br i1 %45, label %ir_may_fuse_imm.exit.thread, label %46

46:                                               ; preds = %ir_may_fuse_imm.exit.thread11
  %47 = getelementptr inbounds i8, ptr %1, i64 4
  %48 = load i32, ptr %47, align 4
  %49 = tail call fastcc zeroext i1 @ir_match_try_fuse_load(ptr noundef %0, i32 noundef %48, i32 noundef %2)
  br i1 %49, label %50, label %ir_may_fuse_imm.exit.thread

50:                                               ; preds = %46
  %51 = load <2 x i32>, ptr %47, align 4
  %52 = shufflevector <2 x i32> %51, <2 x i32> poison, <2 x i32> <i32 1, i32 0>
  store <2 x i32> %52, ptr %47, align 4
  br label %ir_may_fuse_imm.exit.thread

ir_may_fuse_imm.exit.thread:                      ; preds = %36, %33, %29, %50, %46, %ir_may_fuse_imm.exit.thread11, %ir_may_fuse_imm.exit
  ret void
}